target datalayout = "e-m:e-p270:32:32-p271:32:32-p272:64:64-i64:64-i128:128-f80:128-n8:16:32:64-S128"
target triple = "x86_64-unknown-linux-gnu"

%"class.hermes::parser::detail::JSParserImpl" = type { ptr, ptr, %"class.hermes::parser::JSLexer", ptr, i32, ptr, i32, i8, i8, i8, %"class.llvh::SmallVector.15", i32, i8, i8, ptr, ptr, ptr, ptr, ptr, ptr, ptr, ptr, ptr, ptr, ptr, ptr, ptr, ptr, ptr, ptr, ptr, ptr, ptr, ptr, ptr, ptr, ptr, ptr, ptr, ptr, ptr, ptr, ptr, ptr, ptr, ptr, ptr, ptr, ptr, ptr, ptr, ptr, ptr, ptr, ptr, ptr, ptr, ptr, ptr, ptr, ptr, ptr, ptr, ptr, ptr, ptr, ptr, ptr, ptr, ptr, ptr, ptr, ptr, ptr, ptr, ptr, ptr, ptr, ptr, ptr, ptr, ptr, ptr, ptr, ptr, [122 x ptr] }
%"class.hermes::parser::JSLexer" = type { ptr, ptr, i32, %"class.std::unique_ptr.2", ptr, ptr, i8, i8, i8, i8, [4 x i8], %"class.hermes::parser::Token", %"class.llvh::SMLoc", ptr, ptr, ptr, i8, %"class.llvh::SmallString", %"class.llvh::SmallString", [46 x ptr], %"class.std::vector", %"class.std::vector.10" }
%"class.std::unique_ptr.2" = type { %"struct.std::__uniq_ptr_data.3" }
%"struct.std::__uniq_ptr_data.3" = type { %"class.std::__uniq_ptr_impl.4" }
%"class.std::__uniq_ptr_impl.4" = type { %"class.std::tuple.5" }
%"class.std::tuple.5" = type { %"struct.std::_Tuple_impl.6" }
%"struct.std::_Tuple_impl.6" = type { %"struct.std::_Head_base.9" }
%"struct.std::_Head_base.9" = type { ptr }
%"class.hermes::parser::Token" = type <{ i32, [4 x i8], %"class.llvh::SMRange", double, ptr, ptr, ptr, ptr, i8, [7 x i8] }>
%"class.llvh::SMRange" = type { %"class.llvh::SMLoc", %"class.llvh::SMLoc" }
%"class.llvh::SMLoc" = type { ptr }
%"class.llvh::SmallString" = type { %"class.llvh::SmallVector" }
%"class.llvh::SmallVector" = type { %"class.llvh::SmallVectorImpl", %"struct.llvh::SmallVectorStorage" }
%"class.llvh::SmallVectorImpl" = type { %"class.llvh::SmallVectorTemplateBase" }
%"class.llvh::SmallVectorTemplateBase" = type { %"class.llvh::SmallVectorTemplateCommon" }
%"class.llvh::SmallVectorTemplateCommon" = type { %"class.llvh::SmallVectorBase" }
%"class.llvh::SmallVectorBase" = type { ptr, i32, i32 }
%"struct.llvh::SmallVectorStorage" = type { [256 x %"struct.llvh::AlignedCharArrayUnion"] }
%"struct.llvh::AlignedCharArrayUnion" = type { %"struct.llvh::AlignedCharArray" }
%"struct.llvh::AlignedCharArray" = type { [1 x i8] }
%"class.std::vector" = type { %"struct.std::_Vector_base" }
%"struct.std::_Vector_base" = type { %"struct.std::_Vector_base<hermes::parser::StoredComment, std::allocator<hermes::parser::StoredComment>>::_Vector_impl" }
%"struct.std::_Vector_base<hermes::parser::StoredComment, std::allocator<hermes::parser::StoredComment>>::_Vector_impl" = type { %"struct.std::_Vector_base<hermes::parser::StoredComment, std::allocator<hermes::parser::StoredComment>>::_Vector_impl_data" }
%"struct.std::_Vector_base<hermes::parser::StoredComment, std::allocator<hermes::parser::StoredComment>>::_Vector_impl_data" = type { ptr, ptr, ptr }
%"class.std::vector.10" = type { %"struct.std::_Vector_base.11" }
%"struct.std::_Vector_base.11" = type { %"struct.std::_Vector_base<hermes::parser::StoredToken, std::allocator<hermes::parser::StoredToken>>::_Vector_impl" }
%"struct.std::_Vector_base<hermes::parser::StoredToken, std::allocator<hermes::parser::StoredToken>>::_Vector_impl" = type { %"struct.std::_Vector_base<hermes::parser::StoredToken, std::allocator<hermes::parser::StoredToken>>::_Vector_impl_data" }
%"struct.std::_Vector_base<hermes::parser::StoredToken, std::allocator<hermes::parser::StoredToken>>::_Vector_impl_data" = type { ptr, ptr, ptr }
%"class.llvh::SmallVector.15" = type { %"class.llvh::SmallVectorImpl.16", %"struct.llvh::SmallVectorStorage.19" }
%"class.llvh::SmallVectorImpl.16" = type { %"class.llvh::SmallVectorTemplateBase.17" }
%"class.llvh::SmallVectorTemplateBase.17" = type { %"class.llvh::SmallVectorTemplateCommon.18" }
%"class.llvh::SmallVectorTemplateCommon.18" = type { %"class.llvh::SmallVectorBase" }
%"struct.llvh::SmallVectorStorage.19" = type { [1 x %"struct.llvh::AlignedCharArrayUnion.20"] }
%"struct.llvh::AlignedCharArrayUnion.20" = type { %"struct.llvh::AlignedCharArray.21" }
%"struct.llvh::AlignedCharArray.21" = type { [8 x i8] }

; Function Attrs: mustprogress nounwind uwtable
define linkonce_odr hidden noundef ptr @_ZNK4llvh25SmallVectorTemplateCommonIPN6hermes12UniqueStringEvE10getFirstElEv(ptr noundef nonnull align 8 dereferenceable(16) %this) #0 comdat align 2 {
entry:
  %this.addr = alloca ptr, align 8
  store ptr %this, ptr %this.addr, align 8
  %this1 = load ptr, ptr %this.addr, align 8
  %add.ptr = getelementptr inbounds i8, ptr %this1, i64 16
  ret ptr %add.ptr
}

; Function Attrs: mustprogress nounwind uwtable
define linkonce_odr hidden void @_ZN4llvh25SmallVectorTemplateCommonIPN6hermes12UniqueStringEvE8grow_podEmm(ptr noundef nonnull align 8 dereferenceable(16) %this, i64 noundef %MinCapacity, i64 noundef %TSize) #0 comdat align 2 {
entry:
  %this.addr = alloca ptr, align 8
  %MinCapacity.addr = alloca i64, align 8
  %TSize.addr = alloca i64, align 8
  store ptr %this, ptr %this.addr, align 8
  store i64 %MinCapacity, ptr %MinCapacity.addr, align 8
  store i64 %TSize, ptr %TSize.addr, align 8
  %this1 = load ptr, ptr %this.addr, align 8
  %call = call noundef ptr @_ZNK4llvh25SmallVectorTemplateCommonIPN6hermes12UniqueStringEvE10getFirstElEv(ptr noundef nonnull align 8 dereferenceable(16) %this1)
  %0 = load i64, ptr %MinCapacity.addr, align 8
  %1 = load i64, ptr %TSize.addr, align 8
  call void @_ZN4llvh15SmallVectorBase8grow_podEPvmm(ptr noundef nonnull align 8 dereferenceable(16) %this1, ptr noundef %call, i64 noundef %0, i64 noundef %1)
  ret void
}

; Function Attrs: mustprogress nounwind uwtable
define linkonce_odr hidden void @_ZN6hermes6parser7JSLexer13setStrictModeEb(ptr noundef nonnull align 8 dereferenceable(1128) %this, i1 noundef zeroext %strictMode) #0 comdat align 2 {
entry:
  %this.addr = alloca ptr, align 8
  %strictMode.addr = alloca i8, align 1
  store ptr %this, ptr %this.addr, align 8
  %frombool = zext i1 %strictMode to i8
  store i8 %frombool, ptr %strictMode.addr, align 1
  %this1 = load ptr, ptr %this.addr, align 8
  %0 = load i8, ptr %strictMode.addr, align 1
  %tobool = trunc i8 %0 to i1
  %strictMode_ = getelementptr inbounds %"class.hermes::parser::JSLexer", ptr %this1, i32 0, i32 6
  %frombool2 = zext i1 %tobool to i8
  store i8 %frombool2, ptr %strictMode_, align 8
  ret void
}

; Function Attrs: mustprogress nounwind uwtable
define linkonce_odr hidden void @_ZN4llvh15SmallVectorBase8set_sizeEm(ptr noundef nonnull align 8 dereferenceable(16) %this, i64 noundef %Size) #0 comdat align 2 {
entry:
  %this.addr = alloca ptr, align 8
  %Size.addr = alloca i64, align 8
  store ptr %this, ptr %this.addr, align 8
  store i64 %Size, ptr %Size.addr, align 8
  %this1 = load ptr, ptr %this.addr, align 8
  %0 = load i64, ptr %Size.addr, align 8
  %conv = trunc i64 %0 to i32
  %Size2 = getelementptr inbounds %"class.llvh::SmallVectorBase", ptr %this1, i32 0, i32 1
  store i32 %conv, ptr %Size2, align 8
  ret void
}

; Function Attrs: mustprogress nounwind uwtable
define linkonce_odr hidden void @_ZN4llvh23SmallVectorTemplateBaseIPN6hermes12UniqueStringELb1EE4growEm(ptr noundef nonnull align 8 dereferenceable(16) %this, i64 noundef %MinSize) #0 comdat align 2 {
entry:
  %this.addr = alloca ptr, align 8
  %MinSize.addr = alloca i64, align 8
  store ptr %this, ptr %this.addr, align 8
  store i64 %MinSize, ptr %MinSize.addr, align 8
  %this1 = load ptr, ptr %this.addr, align 8
  %0 = load i64, ptr %MinSize.addr, align 8
  call void @_ZN4llvh25SmallVectorTemplateCommonIPN6hermes12UniqueStringEvE8grow_podEmm(ptr noundef nonnull align 8 dereferenceable(16) %this1, i64 noundef %0, i64 noundef 8)
  ret void
}

; Function Attrs: mustprogress nounwind uwtable
define linkonce_odr hidden noundef i64 @_ZNK4llvh15SmallVectorBase8capacityEv(ptr noundef nonnull align 8 dereferenceable(16) %this) #0 comdat align 2 {
entry:
  %this.addr = alloca ptr, align 8
  store ptr %this, ptr %this.addr, align 8
  %this1 = load ptr, ptr %this.addr, align 8
  %Capacity = getelementptr inbounds %"class.llvh::SmallVectorBase", ptr %this1, i32 0, i32 2
  %0 = load i32, ptr %Capacity, align 4
  %conv = zext i32 %0 to i64
  ret i64 %conv
}

; Function Attrs: mustprogress nounwind uwtable
define linkonce_odr hidden noundef i64 @_ZNK4llvh15SmallVectorBase4sizeEv(ptr noundef nonnull align 8 dereferenceable(16) %this) #0 comdat align 2 {
entry:
  %this.addr = alloca ptr, align 8
  store ptr %this, ptr %this.addr, align 8
  %this1 = load ptr, ptr %this.addr, align 8
  %Size = getelementptr inbounds %"class.llvh::SmallVectorBase", ptr %this1, i32 0, i32 1
  %0 = load i32, ptr %Size, align 8
  %conv = zext i32 %0 to i64
  ret i64 %conv
}

; Function Attrs: mustprogress nounwind uwtable
define linkonce_odr hidden void @_ZN6hermes6parser6detail12JSParserImpl19setUseStaticBuiltinEv(ptr noundef nonnull align 8 dereferenceable(2752) %this) #0 comdat align 2 {
entry:
  %this.addr = alloca ptr, align 8
  store ptr %this, ptr %this.addr, align 8
  %this1 = load ptr, ptr %this.addr, align 8
  %useStaticBuiltin_ = getelementptr inbounds %"class.hermes::parser::detail::JSParserImpl", ptr %this1, i32 0, i32 7
  store i8 1, ptr %useStaticBuiltin_, align 4
  ret void
}

; Function Attrs: mustprogress nounwind uwtable
define linkonce_odr hidden void @_ZN6hermes6parser6detail12JSParserImpl13setStrictModeEb(ptr noundef nonnull align 8 dereferenceable(2752) %this, i1 noundef zeroext %mode) #0 comdat align 2 {
entry:
  %this.addr = alloca ptr, align 8
  %mode.addr = alloca i8, align 1
  store ptr %this, ptr %this.addr, align 8
  %frombool = zext i1 %mode to i8
  store i8 %frombool, ptr %mode.addr, align 1
  %this1 = load ptr, ptr %this.addr, align 8
  %lexer_ = getelementptr inbounds %"class.hermes::parser::detail::JSParserImpl", ptr %this1, i32 0, i32 2
  %0 = load i8, ptr %mode.addr, align 1
  %tobool = trunc i8 %0 to i1
  call void @_ZN6hermes6parser7JSLexer13setStrictModeEb(ptr noundef nonnull align 8 dereferenceable(1128) %lexer_, i1 noundef zeroext %tobool)
  ret void
}

; Function Attrs: mustprogress nounwind uwtable
define linkonce_odr hidden void @_ZN4llvh23SmallVectorTemplateBaseIPN6hermes12UniqueStringELb1EE9push_backERKS3_(ptr noundef nonnull align 8 dereferenceable(16) %this, ptr noundef nonnull align 8 dereferenceable(8) %Elt) #0 comdat align 2 {
entry:
  %this.addr.i.i = alloca ptr, align 8
  %this.addr.i = alloca ptr, align 8
  %this.addr = alloca ptr, align 8
  %Elt.addr = alloca ptr, align 8
  store ptr %this, ptr %this.addr, align 8
  store ptr %Elt, ptr %Elt.addr, align 8
  %this1 = load ptr, ptr %this.addr, align 8
  %call = call noundef i64 @_ZNK4llvh15SmallVectorBase4sizeEv(ptr noundef nonnull align 8 dereferenceable(16) %this1)
  %call2 = call noundef i64 @_ZNK4llvh15SmallVectorBase8capacityEv(ptr noundef nonnull align 8 dereferenceable(16) %this1)
  %cmp = icmp uge i64 %call, %call2
  br i1 %cmp, label %if.then, label %if.end

if.then:                                          ; preds = %entry
  call void @_ZN4llvh23SmallVectorTemplateBaseIPN6hermes12UniqueStringELb1EE4growEm(ptr noundef nonnull align 8 dereferenceable(16) %this1, i64 noundef 0)
  br label %if.end

if.end:                                           ; preds = %if.then, %entry
  store ptr %this1, ptr %this.addr.i, align 8
  %this1.i = load ptr, ptr %this.addr.i, align 8
  store ptr %this1.i, ptr %this.addr.i.i, align 8
  %this1.i.i = load ptr, ptr %this.addr.i.i, align 8
  %0 = load ptr, ptr %this1.i.i, align 8
  %call2.i = call noundef i64 @_ZNK4llvh15SmallVectorBase4sizeEv(ptr noundef nonnull align 8 dereferenceable(16) %this1.i)
  %add.ptr.i = getelementptr inbounds ptr, ptr %0, i64 %call2.i
  %1 = load ptr, ptr %Elt.addr, align 8
  call void @llvm.memcpy.p0.p0.i64(ptr align 1 %add.ptr.i, ptr align 8 %1, i64 8, i1 false)
  %call4 = call noundef i64 @_ZNK4llvh15SmallVectorBase4sizeEv(ptr noundef nonnull align 8 dereferenceable(16) %this1)
  %add = add i64 %call4, 1
  call void @_ZN4llvh15SmallVectorBase8set_sizeEm(ptr noundef nonnull align 8 dereferenceable(16) %this1, i64 noundef %add)
  ret void
}

; Function Attrs: mustprogress nounwind uwtable
define hidden void @_ZN6hermes6parser6detail12JSParserImpl16processDirectiveEPNS_12UniqueStringE(ptr noundef nonnull align 8 dereferenceable(2752) %this, ptr noundef %directive) #0 align 2 {
entry:
  %this.addr = alloca ptr, align 8
  %directive.addr = alloca ptr, align 8
  store ptr %this, ptr %this.addr, align 8
  store ptr %directive, ptr %directive.addr, align 8
  %this1 = load ptr, ptr %this.addr, align 8
  %seenDirectives_ = getelementptr inbounds %"class.hermes::parser::detail::JSParserImpl", ptr %this1, i32 0, i32 10
  call void @_ZN4llvh23SmallVectorTemplateBaseIPN6hermes12UniqueStringELb1EE9push_backERKS3_(ptr noundef nonnull align 8 dereferenceable(16) %seenDirectives_, ptr noundef nonnull align 8 dereferenceable(8) %directive.addr)
  %0 = load ptr, ptr %directive.addr, align 8
  %useStrictIdent_ = getelementptr inbounds %"class.hermes::parser::detail::JSParserImpl", ptr %this1, i32 0, i32 17
  %1 = load ptr, ptr %useStrictIdent_, align 8
  %cmp = icmp eq ptr %0, %1
  br i1 %cmp, label %if.then, label %if.end

if.then:                                          ; preds = %entry
  call void @_ZN6hermes6parser6detail12JSParserImpl13setStrictModeEb(ptr noundef nonnull align 8 dereferenceable(2752) %this1, i1 noundef zeroext true)
  br label %if.end

if.end:                                           ; preds = %if.then, %entry
  %2 = load ptr, ptr %directive.addr, align 8
  %useStaticBuiltinIdent_ = getelementptr inbounds %"class.hermes::parser::detail::JSParserImpl", ptr %this1, i32 0, i32 21
  %3 = load ptr, ptr %useStaticBuiltinIdent_, align 8
  %cmp2 = icmp eq ptr %2, %3
  br i1 %cmp2, label %if.then3, label %if.end4

if.then3:                                         ; preds = %if.end
  call void @_ZN6hermes6parser6detail12JSParserImpl19setUseStaticBuiltinEv(ptr noundef nonnull align 8 dereferenceable(2752) %this1)
  br label %if.end4

if.end4:                                          ; preds = %if.then3, %if.end
  ret void
}