; Function Attrs: mustprogress nounwind uwtable
define hidden void @_ZN6hermes6parser6detail12JSParserImpl16processDirectiveEPNS_12UniqueStringE(ptr noundef nonnull align 8 dereferenceable(2752) %this, ptr noundef %directive) local_unnamed_addr #0 align 2 {
entry:
  %seenDirectives_ = getelementptr inbounds i8, ptr %this, i64 1176
  %Size.i.i = getelementptr inbounds i8, ptr %this, i64 1184
  %0 = load i32, ptr %Size.i.i, align 8
  %Capacity.i.i = getelementptr inbounds i8, ptr %this, i64 1188
  %1 = load i32, ptr %Capacity.i.i, align 4
  %cmp.not.i = icmp ult i32 %0, %1
  br i1 %cmp.not.i, label %_ZN4llvh23SmallVectorTemplateBaseIPN6hermes12UniqueStringELb1EE9push_backERKS3_.exit, label %if.then.i

if.then.i:                                        ; preds = %entry
  %add.ptr.i.i.i.i = getelementptr inbounds i8, ptr %this, i64 1192
  tail call void @_ZN4llvh15SmallVectorBase8grow_podEPvmm(ptr noundef nonnull align 8 dereferenceable(16) %seenDirectives_, ptr noundef nonnull %add.ptr.i.i.i.i, i64 noundef 0, i64 noundef 8) #16
  %.pre.i = load i32, ptr %Size.i.i, align 8
  br label %_ZN4llvh23SmallVectorTemplateBaseIPN6hermes12UniqueStringELb1EE9push_backERKS3_.exit

_ZN4llvh23SmallVectorTemplateBaseIPN6hermes12UniqueStringELb1EE9push_backERKS3_.exit: ; preds = %entry, %if.then.i
  %2 = phi i32 [ %.pre.i, %if.then.i ], [ %0, %entry ]
  %3 = load ptr, ptr %seenDirectives_, align 8
  %conv.i3.i = zext i32 %2 to i64
  %add.ptr.i.i = getelementptr inbounds ptr, ptr %3, i64 %conv.i3.i
  %4 = ptrtoint ptr %directive to i64
  store i64 %4, ptr %add.ptr.i.i, align 1
  %5 = load i32, ptr %Size.i.i, align 8
  %add.i = add i32 %5, 1
  store i32 %add.i, ptr %Size.i.i, align 8
  %useStrictIdent_ = getelementptr inbounds i8, ptr %this, i64 1232
  %6 = load ptr, ptr %useStrictIdent_, align 8
  %cmp = icmp eq ptr %6, %directive
  br i1 %cmp, label %if.then, label %if.end

if.then:                                          ; preds = %_ZN4llvh23SmallVectorTemplateBaseIPN6hermes12UniqueStringELb1EE9push_backERKS3_.exit
  %strictMode_.i.i = getelementptr inbounds i8, ptr %this, i64 64
  store i8 1, ptr %strictMode_.i.i, align 8
  br label %if.end

if.end:                                           ; preds = %if.then, %_ZN4llvh23SmallVectorTemplateBaseIPN6hermes12UniqueStringELb1EE9push_backERKS3_.exit
  %useStaticBuiltinIdent_ = getelementptr inbounds i8, ptr %this, i64 1264
  %7 = load ptr, ptr %useStaticBuiltinIdent_, align 8
  %cmp2 = icmp eq ptr %7, %directive
  br i1 %cmp2, label %if.then3, label %if.end4

if.then3:                                         ; preds = %if.end
  %useStaticBuiltin_.i = getelementptr inbounds i8, ptr %this, i64 1172
  store i8 1, ptr %useStaticBuiltin_.i, align 4
  br label %if.end4

if.end4:                                          ; preds = %if.then3, %if.end
  ret void
}